target datalayout = "e-m:e-p270:32:32-p271:32:32-p272:64:64-i64:64-i128:128-f80:128-n8:16:32:64-S128"
target triple = "x86_64-pc-linux-gnu"

%struct.lemon = type { ptr, ptr, ptr, i32, i32, i32, i32, i32, i32, i32, i32, i32, i32, i32, i32, ptr, i32, ptr, ptr, ptr, ptr, ptr, ptr, ptr, ptr, ptr, ptr, ptr, ptr, ptr, ptr, ptr, ptr, ptr, ptr, ptr, ptr, i32, i32, i32, i32, i32, i32, i32, i32, ptr }
%struct.symbol = type { ptr, i32, i32, ptr, ptr, i32, i32, ptr, i32, i32, ptr, i32, ptr, i32, i32, i32, ptr }

@stderr = external global ptr, align 8
@.str.70 = private unnamed_addr constant [1 x i8] zeroinitializer, align 1
@.str.73 = private unnamed_addr constant [3 x i8] c"rb\00", align 1
@.str.83 = private unnamed_addr constant [23 x i8] c"Can't open file \22%s\22.\0A\00", align 1
@.str.106 = private unnamed_addr constant [3 x i8] c"wb\00", align 1
@.str.178 = private unnamed_addr constant [3 x i8] c".h\00", align 1
@.str.259 = private unnamed_addr constant [21 x i8] c"#define %s%-30s %3d\0A\00", align 1

; Function Attrs: null_pointer_is_valid sspstrong uwtable
define hidden ptr @file_open(ptr noundef %0, ptr noundef %1, ptr noundef %2) #0 {
  %4 = alloca ptr, align 8
  %5 = alloca ptr, align 8
  %6 = alloca ptr, align 8
  %7 = alloca ptr, align 8
  %8 = alloca ptr, align 8
  %9 = alloca i32, align 4
  store ptr %0, ptr %5, align 8
  store ptr %1, ptr %6, align 8
  store ptr %2, ptr %7, align 8
  call void @llvm.lifetime.start.p0(i64 8, ptr %8) #18
  %10 = load ptr, ptr %5, align 8
  %11 = getelementptr inbounds nuw %struct.lemon, ptr %10, i32 0, i32 35
  %12 = load ptr, ptr %11, align 8
  %13 = icmp ne ptr %12, null
  br i1 %13, label %14, label %18

14:                                               ; preds = %3
  %15 = load ptr, ptr %5, align 8
  %16 = getelementptr inbounds nuw %struct.lemon, ptr %15, i32 0, i32 35
  %17 = load ptr, ptr %16, align 8
  call void @free(ptr noundef %17) #18
  br label %18

18:                                               ; preds = %14, %3
  %19 = load ptr, ptr %5, align 8
  %20 = load ptr, ptr %6, align 8
  %21 = call ptr @file_makename(ptr noundef %19, ptr noundef %20)
  %22 = load ptr, ptr %5, align 8
  %23 = getelementptr inbounds nuw %struct.lemon, ptr %22, i32 0, i32 35
  store ptr %21, ptr %23, align 8
  %24 = load ptr, ptr %5, align 8
  %25 = getelementptr inbounds nuw %struct.lemon, ptr %24, i32 0, i32 35
  %26 = load ptr, ptr %25, align 8
  %27 = load ptr, ptr %7, align 8
  %28 = call noalias ptr @fopen(ptr noundef %26, ptr noundef %27)
  store ptr %28, ptr %8, align 8
  %29 = load ptr, ptr %8, align 8
  %30 = icmp eq ptr %29, null
  br i1 %30, label %31, label %46

31:                                               ; preds = %18
  %32 = load ptr, ptr %7, align 8
  %33 = load i8, ptr %32, align 1
  %34 = sext i8 %33 to i32
  %35 = icmp eq i32 %34, 119
  br i1 %35, label %36, label %46

36:                                               ; preds = %31
  %37 = load ptr, ptr @stderr, align 8
  %38 = load ptr, ptr %5, align 8
  %39 = getelementptr inbounds nuw %struct.lemon, ptr %38, i32 0, i32 35
  %40 = load ptr, ptr %39, align 8
  %41 = call i32 (ptr, i32, ptr, ...) @__fprintf_chk(ptr noundef %37, i32 noundef 2, ptr noundef @.str.83, ptr noundef %40)
  %42 = load ptr, ptr %5, align 8
  %43 = getelementptr inbounds nuw %struct.lemon, ptr %42, i32 0, i32 16
  %44 = load i32, ptr %43, align 8
  %45 = add i32 %44, 1
  store i32 %45, ptr %43, align 8
  store ptr null, ptr %4, align 8
  store i32 1, ptr %9, align 4
  br label %48

46:                                               ; preds = %31, %18
  %47 = load ptr, ptr %8, align 8
  store ptr %47, ptr %4, align 8
  store i32 1, ptr %9, align 4
  br label %48

48:                                               ; preds = %46, %36
  call void @llvm.lifetime.end.p0(i64 8, ptr %8) #18
  %49 = load ptr, ptr %4, align 8
  ret ptr %49
}

; Function Attrs: null_pointer_is_valid sspstrong uwtable
define hidden void @ReportHeader(ptr noundef %0) #0 {
  %2 = alloca ptr, align 8
  %3 = alloca ptr, align 8
  %4 = alloca ptr, align 8
  %5 = alloca ptr, align 8
  %6 = alloca [1000 x i8], align 16
  %7 = alloca [1000 x i8], align 16
  %8 = alloca i32, align 4
  %9 = alloca i32, align 4
  %10 = alloca i32, align 4
  store ptr %0, ptr %2, align 8
  call void @llvm.lifetime.start.p0(i64 8, ptr %3) #18
  call void @llvm.lifetime.start.p0(i64 8, ptr %4) #18
  call void @llvm.lifetime.start.p0(i64 8, ptr %5) #18
  call void @llvm.lifetime.start.p0(i64 1000, ptr %6) #18
  call void @llvm.lifetime.start.p0(i64 1000, ptr %7) #18
  call void @llvm.lifetime.start.p0(i64 4, ptr %8) #18
  %11 = load ptr, ptr %2, align 8
  %12 = getelementptr inbounds nuw %struct.lemon, ptr %11, i32 0, i32 36
  %13 = load ptr, ptr %12, align 8
  %14 = icmp ne ptr %13, null
  br i1 %14, label %15, label %19

15:                                               ; preds = %1
  %16 = load ptr, ptr %2, align 8
  %17 = getelementptr inbounds nuw %struct.lemon, ptr %16, i32 0, i32 36
  %18 = load ptr, ptr %17, align 8
  store ptr %18, ptr %5, align 8
  br label %20

19:                                               ; preds = %1
  store ptr @.str.70, ptr %5, align 8
  br label %20

20:                                               ; preds = %19, %15
  %21 = load ptr, ptr %2, align 8
  %22 = call ptr @file_open(ptr noundef %21, ptr noundef @.str.178, ptr noundef @.str.73)
  store ptr %22, ptr %4, align 8
  %23 = load ptr, ptr %4, align 8
  %24 = icmp ne ptr %23, null
  br i1 %24, label %25, label %80

25:                                               ; preds = %20
  call void @llvm.lifetime.start.p0(i64 4, ptr %9) #18
  store i32 1, ptr %8, align 4
  br label %26

26:                                               ; preds = %59, %25
  %27 = load i32, ptr %8, align 4
  %28 = load ptr, ptr %2, align 8
  %29 = getelementptr inbounds nuw %struct.lemon, ptr %28, i32 0, i32 8
  %30 = load i32, ptr %29, align 4
  %31 = icmp slt i32 %27, %30
  br i1 %31, label %32, label %37

32:                                               ; preds = %26
  %33 = getelementptr inbounds [1000 x i8], ptr %6, i64 0, i64 0
  %34 = load ptr, ptr %4, align 8
  %35 = call ptr @fgets(ptr noundef %33, i32 noundef 1000, ptr noundef %34)
  %36 = icmp ne ptr %35, null
  br label %37

37:                                               ; preds = %32, %26
  %38 = phi i1 [ false, %26 ], [ %36, %32 ]
  br i1 %38, label %39, label %62

39:                                               ; preds = %37
  %40 = getelementptr inbounds [1000 x i8], ptr %7, i64 0, i64 0
  %41 = load ptr, ptr %5, align 8
  %42 = load ptr, ptr %2, align 8
  %43 = getelementptr inbounds nuw %struct.lemon, ptr %42, i32 0, i32 15
  %44 = load ptr, ptr %43, align 8
  %45 = load i32, ptr %8, align 4
  %46 = sext i32 %45 to i64
  %47 = getelementptr ptr, ptr %44, i64 %46
  %48 = load ptr, ptr %47, align 8
  %49 = getelementptr inbounds nuw %struct.symbol, ptr %48, i32 0, i32 0
  %50 = load ptr, ptr %49, align 8
  %51 = load i32, ptr %8, align 4
  %52 = call i32 (ptr, ptr, ...) @lemon_sprintf(ptr noundef %40, ptr noundef @.str.259, ptr noundef %41, ptr noundef %50, i32 noundef %51)
  %53 = getelementptr inbounds [1000 x i8], ptr %6, i64 0, i64 0
  %54 = getelementptr inbounds [1000 x i8], ptr %7, i64 0, i64 0
  %55 = call i32 @strcmp(ptr noundef %53, ptr noundef %54) #22
  %56 = icmp ne i32 %55, 0
  br i1 %56, label %57, label %58

57:                                               ; preds = %39
  br label %62

58:                                               ; preds = %39
  br label %59

59:                                               ; preds = %58
  %60 = load i32, ptr %8, align 4
  %61 = add i32 %60, 1
  store i32 %61, ptr %8, align 4
  br label %26, !llvm.loop !177

62:                                               ; preds = %57, %37
  %63 = load ptr, ptr %4, align 8
  %64 = call i32 @fgetc(ptr noundef %63)
  store i32 %64, ptr %9, align 4
  %65 = load ptr, ptr %4, align 8
  %66 = call i32 @fclose(ptr noundef %65)
  %67 = load i32, ptr %8, align 4
  %68 = load ptr, ptr %2, align 8
  %69 = getelementptr inbounds nuw %struct.lemon, ptr %68, i32 0, i32 8
  %70 = load i32, ptr %69, align 4
  %71 = icmp eq i32 %67, %70
  br i1 %71, label %72, label %76

72:                                               ; preds = %62
  %73 = load i32, ptr %9, align 4
  %74 = icmp eq i32 %73, -1
  br i1 %74, label %75, label %76

75:                                               ; preds = %72
  store i32 1, ptr %10, align 4
  br label %77

76:                                               ; preds = %72, %62
  store i32 0, ptr %10, align 4
  br label %77

77:                                               ; preds = %76, %75
  call void @llvm.lifetime.end.p0(i64 4, ptr %9) #18
  %78 = load i32, ptr %10, align 4
  switch i32 %78, label %113 [
    i32 0, label %79
  ]

79:                                               ; preds = %77
  br label %80

80:                                               ; preds = %79, %20
  %81 = load ptr, ptr %2, align 8
  %82 = call ptr @file_open(ptr noundef %81, ptr noundef @.str.178, ptr noundef @.str.106)
  store ptr %82, ptr %3, align 8
  %83 = load ptr, ptr %3, align 8
  %84 = icmp ne ptr %83, null
  br i1 %84, label %85, label %112

85:                                               ; preds = %80
  store i32 1, ptr %8, align 4
  br label %86

86:                                               ; preds = %106, %85
  %87 = load i32, ptr %8, align 4
  %88 = load ptr, ptr %2, align 8
  %89 = getelementptr inbounds nuw %struct.lemon, ptr %88, i32 0, i32 8
  %90 = load i32, ptr %89, align 4
  %91 = icmp slt i32 %87, %90
  br i1 %91, label %92, label %109

92:                                               ; preds = %86
  %93 = load ptr, ptr %3, align 8
  %94 = load ptr, ptr %5, align 8
  %95 = load ptr, ptr %2, align 8
  %96 = getelementptr inbounds nuw %struct.lemon, ptr %95, i32 0, i32 15
  %97 = load ptr, ptr %96, align 8
  %98 = load i32, ptr %8, align 4
  %99 = sext i32 %98 to i64
  %100 = getelementptr ptr, ptr %97, i64 %99
  %101 = load ptr, ptr %100, align 8
  %102 = getelementptr inbounds nuw %struct.symbol, ptr %101, i32 0, i32 0
  %103 = load ptr, ptr %102, align 8
  %104 = load i32, ptr %8, align 4
  %105 = call i32 (ptr, i32, ptr, ...) @__fprintf_chk(ptr noundef %93, i32 noundef 2, ptr noundef @.str.259, ptr noundef %94, ptr noundef %103, i32 noundef %104)
  br label %106

106:                                              ; preds = %92
  %107 = load i32, ptr %8, align 4
  %108 = add i32 %107, 1
  store i32 %108, ptr %8, align 4
  br label %86, !llvm.loop !178

109:                                              ; preds = %86
  %110 = load ptr, ptr %3, align 8
  %111 = call i32 @fclose(ptr noundef %110)
  br label %112

112:                                              ; preds = %109, %80
  store i32 1, ptr %10, align 4
  br label %113

113:                                              ; preds = %112, %77
  call void @llvm.lifetime.end.p0(i64 4, ptr %8) #18
  call void @llvm.lifetime.end.p0(i64 1000, ptr %7) #18
  call void @llvm.lifetime.end.p0(i64 1000, ptr %6) #18
  call void @llvm.lifetime.end.p0(i64 8, ptr %5) #18
  call void @llvm.lifetime.end.p0(i64 8, ptr %4) #18
  call void @llvm.lifetime.end.p0(i64 8, ptr %3) #18
  ret void
}