; Function Attrs: null_pointer_is_valid sspstrong uwtable
define hidden void @ReportHeader(ptr noundef captures(none) %0) local_unnamed_addr #0 {
  %2 = alloca [1000 x i8], align 16
  %3 = alloca [1000 x i8], align 16
  call void @llvm.lifetime.start.p0(i64 1000, ptr nonnull %2) #42
  call void @llvm.lifetime.start.p0(i64 1000, ptr nonnull %3) #42
  %4 = getelementptr inbounds nuw i8, ptr %0, i64 240
  %5 = load ptr, ptr %4, align 8
  %.not = icmp eq ptr %5, null
  %.str.70. = select i1 %.not, ptr @.str.70, ptr %5
  %6 = getelementptr inbounds nuw i8, ptr %0, i64 232
  %7 = load ptr, ptr %6, align 8
  %.not.i = icmp eq ptr %7, null
  br i1 %.not.i, label %file_open.exit, label %8

8:                                                ; preds = %1
  tail call void @free(ptr noundef nonnull %7) #42
  br label %file_open.exit

file_open.exit:                                   ; preds = %8, %1
  %9 = tail call ptr @file_makename(ptr noundef %0, ptr noundef nonnull @.str.178)
  store ptr %9, ptr %6, align 8
  %10 = tail call noalias ptr @fopen(ptr noundef nonnull %9, ptr noundef nonnull @.str.73)
  %11 = icmp eq ptr %10, null
  br i1 %11, label %33, label %.preheader

.preheader:                                       ; preds = %file_open.exit
  %12 = getelementptr inbounds nuw i8, ptr %0, i64 72
  %13 = getelementptr inbounds nuw i8, ptr %0, i64 44
  %14 = load i32, ptr %13, align 4
  %15 = icmp sgt i32 %14, 1
  br i1 %15, label %.lr.ph, label %.critedge

.lr.ph:                                           ; preds = %.preheader, %24
  %indvars.iv = phi i64 [ %indvars.iv.next, %24 ], [ 1, %.preheader ]
  %16 = call ptr @fgets(ptr noundef nonnull %2, i32 noundef 1000, ptr noundef nonnull %10)
  %.not35 = icmp eq ptr %16, null
  %17 = trunc nuw nsw i64 %indvars.iv to i32
  br i1 %.not35, label %.critedge, label %18

18:                                               ; preds = %.lr.ph
  %19 = load ptr, ptr %12, align 8
  %20 = getelementptr ptr, ptr %19, i64 %indvars.iv
  %21 = load ptr, ptr %20, align 8
  %22 = load ptr, ptr %21, align 8
  call void (ptr, ptr, ...) @lemon_sprintf(ptr noundef nonnull %3, ptr noundef nonnull @.str.259, ptr noundef nonnull %.str.70., ptr noundef %22, i32 noundef %17)
  %23 = call i32 @strcmp(ptr noundef nonnull dereferenceable(1) %2, ptr noundef nonnull dereferenceable(1) %3) #45
  %.not36 = icmp eq i32 %23, 0
  br i1 %.not36, label %24, label %.critedge

24:                                               ; preds = %18
  %indvars.iv.next = add nuw nsw i64 %indvars.iv, 1
  %25 = load i32, ptr %13, align 4
  %26 = sext i32 %25 to i64
  %27 = icmp slt i64 %indvars.iv.next, %26
  br i1 %27, label %.lr.ph, label %.critedge.loopexit.split.loop.exit, !llvm.loop !199

.critedge.loopexit.split.loop.exit:               ; preds = %24
  %indvars.le = trunc i64 %indvars.iv.next to i32
  br label %.critedge

.critedge:                                        ; preds = %18, %.lr.ph, %.critedge.loopexit.split.loop.exit, %.preheader
  %.030.lcssa = phi i32 [ 1, %.preheader ], [ %indvars.le, %.critedge.loopexit.split.loop.exit ], [ %17, %.lr.ph ], [ %17, %18 ]
  %28 = call i32 @fgetc(ptr noundef nonnull %10)
  %29 = call i32 @fclose(ptr noundef nonnull %10)
  %30 = load i32, ptr %13, align 4
  %31 = icmp ne i32 %.030.lcssa, %30
  %32 = icmp ne i32 %28, -1
  %or.cond.not = or i1 %32, %31
  br i1 %or.cond.not, label %33, label %60

33:                                               ; preds = %.critedge, %file_open.exit
  %34 = load ptr, ptr %6, align 8
  %.not.i40 = icmp eq ptr %34, null
  br i1 %.not.i40, label %36, label %35

35:                                               ; preds = %33
  call void @free(ptr noundef nonnull %34) #42
  br label %36

36:                                               ; preds = %35, %33
  %37 = call ptr @file_makename(ptr noundef %0, ptr noundef nonnull @.str.178)
  store ptr %37, ptr %6, align 8
  %38 = call noalias ptr @fopen(ptr noundef nonnull %37, ptr noundef nonnull @.str.106)
  %39 = icmp eq ptr %38, null
  br i1 %39, label %file_open.exit41.thread, label %file_open.exit41.preheader

file_open.exit41.preheader:                       ; preds = %36
  %40 = getelementptr inbounds nuw i8, ptr %0, i64 44
  %41 = load i32, ptr %40, align 4
  %42 = icmp sgt i32 %41, 1
  br i1 %42, label %.lr.ph48, label %file_open.exit41._crit_edge

.lr.ph48:                                         ; preds = %file_open.exit41.preheader
  %43 = getelementptr inbounds nuw i8, ptr %0, i64 72
  br label %file_open.exit41

file_open.exit41.thread:                          ; preds = %36
  %44 = load ptr, ptr @stderr, align 8
  %45 = load ptr, ptr %6, align 8
  %46 = call i32 (ptr, i32, ptr, ...) @__fprintf_chk(ptr noundef %44, i32 noundef 2, ptr noundef nonnull @.str.83, ptr noundef %45)
  %47 = getelementptr inbounds nuw i8, ptr %0, i64 80
  %48 = load i32, ptr %47, align 8
  %49 = add i32 %48, 1
  store i32 %49, ptr %47, align 8
  br label %60

file_open.exit41:                                 ; preds = %.lr.ph48, %file_open.exit41
  %indvars.iv50 = phi i64 [ 1, %.lr.ph48 ], [ %indvars.iv.next51, %file_open.exit41 ]
  %50 = load ptr, ptr %43, align 8
  %51 = getelementptr ptr, ptr %50, i64 %indvars.iv50
  %52 = load ptr, ptr %51, align 8
  %53 = load ptr, ptr %52, align 8
  %54 = trunc nuw nsw i64 %indvars.iv50 to i32
  %55 = call i32 (ptr, i32, ptr, ...) @__fprintf_chk(ptr noundef nonnull %38, i32 noundef 2, ptr noundef nonnull @.str.259, ptr noundef nonnull %.str.70., ptr noundef %53, i32 noundef %54)
  %indvars.iv.next51 = add nuw nsw i64 %indvars.iv50, 1
  %56 = load i32, ptr %40, align 4
  %57 = sext i32 %56 to i64
  %58 = icmp slt i64 %indvars.iv.next51, %57
  br i1 %58, label %file_open.exit41, label %file_open.exit41._crit_edge, !llvm.loop !200

file_open.exit41._crit_edge:                      ; preds = %file_open.exit41, %file_open.exit41.preheader
  %59 = call i32 @fclose(ptr noundef nonnull %38)
  br label %60

60:                                               ; preds = %file_open.exit41.thread, %file_open.exit41._crit_edge, %.critedge
  call void @llvm.lifetime.end.p0(i64 1000, ptr nonnull %3) #42
  call void @llvm.lifetime.end.p0(i64 1000, ptr nonnull %2) #42
  ret void
}